; Function Attrs: null_pointer_is_valid sspstrong uwtable
define i32 @tvb_ensure_reported_length_remaining(ptr noundef readonly captures(address_is_null) %0, i32 noundef %1) local_unnamed_addr #0 {
  %.not = icmp eq ptr %0, null
  br i1 %.not, label %7, label %3

3:                                                ; preds = %2
  %4 = getelementptr inbounds nuw i8, ptr %0, i64 16
  %5 = load i8, ptr %4, align 8, !range !9, !noundef !10
  %6 = trunc nuw i8 %5 to i1
  br i1 %6, label %8, label %7

7:                                                ; preds = %3, %2
  tail call void (ptr, ...) @proto_report_dissector_bug(ptr noundef nonnull @.str, ptr noundef nonnull @.str.1, i32 noundef 775, ptr noundef nonnull @.str.5) #18
  unreachable

8:                                                ; preds = %3
  %9 = icmp sgt i32 %1, -1
  br i1 %9, label %10, label %23

10:                                               ; preds = %8
  %11 = getelementptr inbounds nuw i8, ptr %0, i64 40
  %12 = load i32, ptr %11, align 8
  %.not32.i = icmp ugt i32 %1, %12
  br i1 %.not32.i, label %13, label %compute_offset.exit, !prof !11

13:                                               ; preds = %10
  %14 = getelementptr inbounds nuw i8, ptr %0, i64 48
  %15 = load i32, ptr %14, align 8
  %.not34.i = icmp ugt i32 %1, %15
  br i1 %.not34.i, label %16, label %39

16:                                               ; preds = %13
  %17 = getelementptr inbounds nuw i8, ptr %0, i64 20
  %18 = load i32, ptr %17, align 4
  %19 = and i32 %18, 1
  %.not35.i = icmp eq i32 %19, 0
  br i1 %.not35.i, label %20, label %39

20:                                               ; preds = %16
  %21 = getelementptr inbounds nuw i8, ptr %0, i64 44
  %22 = load i32, ptr %21, align 4
  %.not36.i = icmp ugt i32 %1, %22
  br label %.sink.split

23:                                               ; preds = %8
  %24 = sub i32 0, %1
  %25 = getelementptr inbounds nuw i8, ptr %0, i64 40
  %26 = load i32, ptr %25, align 8
  %.not.i = icmp ult i32 %26, %24
  br i1 %.not.i, label %29, label %27, !prof !11

27:                                               ; preds = %23
  %28 = add i32 %26, %1
  br label %compute_offset.exit

29:                                               ; preds = %23
  %30 = getelementptr inbounds nuw i8, ptr %0, i64 48
  %31 = load i32, ptr %30, align 8
  %.not29.i = icmp ult i32 %31, %24
  br i1 %.not29.i, label %32, label %39

32:                                               ; preds = %29
  %33 = getelementptr inbounds nuw i8, ptr %0, i64 20
  %34 = load i32, ptr %33, align 4
  %35 = and i32 %34, 1
  %.not30.i = icmp eq i32 %35, 0
  br i1 %.not30.i, label %36, label %39

36:                                               ; preds = %32
  %37 = getelementptr inbounds nuw i8, ptr %0, i64 44
  %38 = load i32, ptr %37, align 4
  %.not31.i = icmp ult i32 %38, %24
  br label %.sink.split

.sink.split:                                      ; preds = %36, %20
  %.not36.i.sink = phi i1 [ %.not36.i, %20 ], [ %.not31.i, %36 ]
  %..i = select i1 %.not36.i.sink, i64 3, i64 2
  br label %39

39:                                               ; preds = %.sink.split, %13, %16, %29, %32
  %.0.i.ph = phi i64 [ 4, %32 ], [ 1, %29 ], [ 4, %16 ], [ 1, %13 ], [ %..i, %.sink.split ]
  tail call void @except_throw(i64 noundef 1, i64 noundef %.0.i.ph, ptr noundef null) #18
  unreachable

compute_offset.exit:                              ; preds = %27, %10
  %.0 = phi i32 [ %28, %27 ], [ %1, %10 ]
  %40 = getelementptr inbounds nuw i8, ptr %0, i64 44
  %41 = load i32, ptr %40, align 4
  %.not11 = icmp ult i32 %41, %.0
  br i1 %.not11, label %44, label %42

42:                                               ; preds = %compute_offset.exit
  %43 = sub nuw i32 %41, %.0
  ret i32 %43

44:                                               ; preds = %compute_offset.exit
  tail call void @except_throw(i64 noundef 1, i64 noundef 3, ptr noundef null) #18
  unreachable
}